; Function Attrs: mustprogress nounwind uwtable
define hidden noundef i32 @_ZN8JvmtiEnv16GetCurrentThreadEPP8_jobject(ptr nocapture noundef nonnull readnone align 8 dereferenceable(460) %0, ptr nocapture noundef writeonly %1) local_unnamed_addr #0 align 2 {
  %3 = tail call align 8 ptr @llvm.threadlocal.address.p0(ptr align 8 @_ZN6Thread12_thr_currentE)
  %4 = load ptr, ptr %3, align 8
  %5 = tail call noundef ptr @_ZNK10JavaThread9threadObjEv(ptr noundef nonnull align 8 dereferenceable(1800) %4) #17
  %6 = tail call noundef ptr @_ZNK10JavaThread13jvmti_vthreadEv(ptr noundef nonnull align 8 dereferenceable(1800) %4) #17
  %.not.i = icmp eq ptr %6, null
  br i1 %.not.i, label %_ZN12JvmtiEnvBase25get_vthread_or_thread_oopEP10JavaThread.exit, label %7

7:                                                ; preds = %2
  %8 = tail call noundef ptr @_ZNK10JavaThread13jvmti_vthreadEv(ptr noundef nonnull align 8 dereferenceable(1800) %4) #17
  br label %_ZN12JvmtiEnvBase25get_vthread_or_thread_oopEP10JavaThread.exit

_ZN12JvmtiEnvBase25get_vthread_or_thread_oopEP10JavaThread.exit: ; preds = %2, %7
  %.0.i = phi ptr [ %8, %7 ], [ %5, %2 ]
  %9 = tail call noundef ptr @_ZN10JNIHandles10make_localEP10JavaThreadP7oopDescN17AllocFailStrategy13AllocFailEnumE(ptr noundef nonnull %4, ptr noundef %.0.i, i32 noundef 0) #17
  store ptr %9, ptr %1, align 8
  ret i32 0
}